target datalayout = "e-m:e-p270:32:32-p271:32:32-p272:64:64-i64:64-i128:128-f80:128-n8:16:32:64-S128"
target triple = "x86_64-pc-linux-gnu"

%struct.FFHWBaseEncodePicture = type { ptr, ptr, ptr, i64, i64, i64, i64, i32, ptr, ptr, i32, i32, i32, i32, ptr, ptr, i32, i32, [16 x ptr], [2 x i32], [2 x [2 x ptr]], ptr, [2 x i32], [2 x i32] }
%struct.FFHWBaseEncodeContext = type { ptr, ptr, ptr, i32, i32, i32, i32, i32, i32, ptr, ptr, ptr, ptr, ptr, ptr, ptr, ptr, [2 x ptr], i32, i64, i64, i64, i64, i64, i64, i64, [112 x i64], i32, i32, i32, i32, i32, i32, i32, i32, i32, i32, i32, i32, i32, i32, i32, i32, ptr, i32, ptr, i32, ptr }

@.str = private unnamed_addr constant [30 x i8] c"Assertion %s failed at %s:%d\0A\00", align 1
@.str.2 = private unnamed_addr constant [28 x i8] c"libavcodec/hw_base_encode.c\00", align 1
@.str.31 = private unnamed_addr constant [51 x i8] c"start && end && start != end && start->next != end\00", align 1

; Function Attrs: nounwind uwtable
define internal void @hw_base_encode_set_b_pictures(ptr noundef %0, ptr noundef %1, ptr noundef %2, ptr noundef %3, i32 noundef %4, ptr noundef %5) #0 {
  %7 = alloca ptr, align 8
  %8 = alloca ptr, align 8
  %9 = alloca ptr, align 8
  %10 = alloca ptr, align 8
  %11 = alloca i32, align 4
  %12 = alloca ptr, align 8
  %13 = alloca ptr, align 8
  %14 = alloca ptr, align 8
  %15 = alloca ptr, align 8
  %16 = alloca i32, align 4
  %17 = alloca i32, align 4
  store ptr %0, ptr %7, align 8, !tbaa !4
  store ptr %1, ptr %8, align 8, !tbaa !11
  store ptr %2, ptr %9, align 8, !tbaa !11
  store ptr %3, ptr %10, align 8, !tbaa !11
  store i32 %4, ptr %11, align 4, !tbaa !15
  store ptr %5, ptr %12, align 8, !tbaa !108
  call void @llvm.lifetime.start.p0(i64 8, ptr %13) #7
  call void @llvm.lifetime.start.p0(i64 8, ptr %14) #7
  call void @llvm.lifetime.start.p0(i64 8, ptr %15) #7
  call void @llvm.lifetime.start.p0(i64 4, ptr %16) #7
  call void @llvm.lifetime.start.p0(i64 4, ptr %17) #7
  br label %18

18:                                               ; preds = %6
  %19 = load ptr, ptr %8, align 8, !tbaa !11
  %20 = icmp ne ptr %19, null
  br i1 %20, label %21, label %34

21:                                               ; preds = %18
  %22 = load ptr, ptr %9, align 8, !tbaa !11
  %23 = icmp ne ptr %22, null
  br i1 %23, label %24, label %34

24:                                               ; preds = %21
  %25 = load ptr, ptr %8, align 8, !tbaa !11
  %26 = load ptr, ptr %9, align 8, !tbaa !11
  %27 = icmp ne ptr %25, %26
  br i1 %27, label %28, label %34

28:                                               ; preds = %24
  %29 = load ptr, ptr %8, align 8, !tbaa !11
  %30 = getelementptr inbounds nuw %struct.FFHWBaseEncodePicture, ptr %29, i32 0, i32 2
  %31 = load ptr, ptr %30, align 8, !tbaa !78
  %32 = load ptr, ptr %9, align 8, !tbaa !11
  %33 = icmp ne ptr %31, %32
  br i1 %33, label %35, label %34

34:                                               ; preds = %28, %24, %21, %18
  call void (ptr, i32, ptr, ...) @av_log(ptr noundef null, i32 noundef 0, ptr noundef @.str, ptr noundef @.str.31, ptr noundef @.str.2, i32 noundef 121)
  call void @abort() #8
  unreachable

35:                                               ; preds = %28
  br label %36

36:                                               ; preds = %35
  br label %37

37:                                               ; preds = %36
  %38 = load i32, ptr %11, align 4, !tbaa !15
  %39 = load ptr, ptr %7, align 8, !tbaa !4
  %40 = getelementptr inbounds nuw %struct.FFHWBaseEncodeContext, ptr %39, i32 0, i32 31
  %41 = load i32, ptr %40, align 8, !tbaa !137
  %42 = icmp eq i32 %38, %41
  br i1 %42, label %51, label %43

43:                                               ; preds = %37
  %44 = load ptr, ptr %8, align 8, !tbaa !11
  %45 = getelementptr inbounds nuw %struct.FFHWBaseEncodePicture, ptr %44, i32 0, i32 2
  %46 = load ptr, ptr %45, align 8, !tbaa !78
  %47 = getelementptr inbounds nuw %struct.FFHWBaseEncodePicture, ptr %46, i32 0, i32 2
  %48 = load ptr, ptr %47, align 8, !tbaa !78
  %49 = load ptr, ptr %9, align 8, !tbaa !11
  %50 = icmp eq ptr %48, %49
  br i1 %50, label %51, label %100

51:                                               ; preds = %43, %37
  %52 = load ptr, ptr %8, align 8, !tbaa !11
  %53 = getelementptr inbounds nuw %struct.FFHWBaseEncodePicture, ptr %52, i32 0, i32 2
  %54 = load ptr, ptr %53, align 8, !tbaa !78
  store ptr %54, ptr %13, align 8, !tbaa !11
  br label %55

55:                                               ; preds = %93, %51
  %56 = load ptr, ptr %13, align 8, !tbaa !11
  %57 = icmp ne ptr %56, null
  br i1 %57, label %58, label %97

58:                                               ; preds = %55
  %59 = load ptr, ptr %13, align 8, !tbaa !11
  %60 = load ptr, ptr %9, align 8, !tbaa !11
  %61 = icmp eq ptr %59, %60
  br i1 %61, label %62, label %63

62:                                               ; preds = %58
  br label %97

63:                                               ; preds = %58
  %64 = load ptr, ptr %13, align 8, !tbaa !11
  %65 = getelementptr inbounds nuw %struct.FFHWBaseEncodePicture, ptr %64, i32 0, i32 10
  store i32 3, ptr %65, align 8, !tbaa !17
  %66 = load i32, ptr %11, align 4, !tbaa !15
  %67 = load ptr, ptr %13, align 8, !tbaa !11
  %68 = getelementptr inbounds nuw %struct.FFHWBaseEncodePicture, ptr %67, i32 0, i32 11
  store i32 %66, ptr %68, align 4, !tbaa !113
  %69 = load ptr, ptr %13, align 8, !tbaa !11
  %70 = load ptr, ptr %8, align 8, !tbaa !11
  call void @hw_base_encode_add_ref(ptr noundef %69, ptr noundef %70, i32 noundef 1, i32 noundef 1, i32 noundef 0)
  %71 = load ptr, ptr %13, align 8, !tbaa !11
  %72 = load ptr, ptr %9, align 8, !tbaa !11
  call void @hw_base_encode_add_ref(ptr noundef %71, ptr noundef %72, i32 noundef 1, i32 noundef 1, i32 noundef 0)
  %73 = load ptr, ptr %13, align 8, !tbaa !11
  %74 = load ptr, ptr %10, align 8, !tbaa !11
  call void @hw_base_encode_add_ref(ptr noundef %73, ptr noundef %74, i32 noundef 0, i32 noundef 0, i32 noundef 1)
  %75 = load ptr, ptr %9, align 8, !tbaa !11
  %76 = getelementptr inbounds nuw %struct.FFHWBaseEncodePicture, ptr %75, i32 0, i32 20
  %77 = getelementptr inbounds [2 x [2 x ptr]], ptr %76, i64 0, i64 1
  %78 = getelementptr inbounds [2 x ptr], ptr %77, i64 0, i64 0
  %79 = load ptr, ptr %78, align 8, !tbaa !11
  store ptr %79, ptr %15, align 8, !tbaa !11
  br label %80

80:                                               ; preds = %86, %63
  %81 = load ptr, ptr %15, align 8, !tbaa !11
  %82 = icmp ne ptr %81, null
  br i1 %82, label %83, label %92

83:                                               ; preds = %80
  %84 = load ptr, ptr %13, align 8, !tbaa !11
  %85 = load ptr, ptr %15, align 8, !tbaa !11
  call void @hw_base_encode_add_ref(ptr noundef %84, ptr noundef %85, i32 noundef 0, i32 noundef 1, i32 noundef 0)
  br label %86

86:                                               ; preds = %83
  %87 = load ptr, ptr %15, align 8, !tbaa !11
  %88 = getelementptr inbounds nuw %struct.FFHWBaseEncodePicture, ptr %87, i32 0, i32 20
  %89 = getelementptr inbounds [2 x [2 x ptr]], ptr %88, i64 0, i64 1
  %90 = getelementptr inbounds [2 x ptr], ptr %89, i64 0, i64 0
  %91 = load ptr, ptr %90, align 8, !tbaa !11
  store ptr %91, ptr %15, align 8, !tbaa !11
  br label %80, !llvm.loop !177

92:                                               ; preds = %80
  br label %93

93:                                               ; preds = %92
  %94 = load ptr, ptr %13, align 8, !tbaa !11
  %95 = getelementptr inbounds nuw %struct.FFHWBaseEncodePicture, ptr %94, i32 0, i32 2
  %96 = load ptr, ptr %95, align 8, !tbaa !78
  store ptr %96, ptr %13, align 8, !tbaa !11
  br label %55, !llvm.loop !178

97:                                               ; preds = %62, %55
  %98 = load ptr, ptr %10, align 8, !tbaa !11
  %99 = load ptr, ptr %12, align 8, !tbaa !108
  store ptr %98, ptr %99, align 8, !tbaa !11
  br label %184

100:                                              ; preds = %43
  store i32 0, ptr %17, align 4, !tbaa !15
  %101 = load ptr, ptr %8, align 8, !tbaa !11
  %102 = getelementptr inbounds nuw %struct.FFHWBaseEncodePicture, ptr %101, i32 0, i32 2
  %103 = load ptr, ptr %102, align 8, !tbaa !78
  store ptr %103, ptr %13, align 8, !tbaa !11
  br label %104

104:                                              ; preds = %111, %100
  %105 = load ptr, ptr %13, align 8, !tbaa !11
  %106 = load ptr, ptr %9, align 8, !tbaa !11
  %107 = icmp ne ptr %105, %106
  br i1 %107, label %108, label %115

108:                                              ; preds = %104
  %109 = load i32, ptr %17, align 4, !tbaa !15
  %110 = add nsw i32 %109, 1
  store i32 %110, ptr %17, align 4, !tbaa !15
  br label %111

111:                                              ; preds = %108
  %112 = load ptr, ptr %13, align 8, !tbaa !11
  %113 = getelementptr inbounds nuw %struct.FFHWBaseEncodePicture, ptr %112, i32 0, i32 2
  %114 = load ptr, ptr %113, align 8, !tbaa !78
  store ptr %114, ptr %13, align 8, !tbaa !11
  br label %104, !llvm.loop !179

115:                                              ; preds = %104
  %116 = load ptr, ptr %8, align 8, !tbaa !11
  %117 = getelementptr inbounds nuw %struct.FFHWBaseEncodePicture, ptr %116, i32 0, i32 2
  %118 = load ptr, ptr %117, align 8, !tbaa !78
  store ptr %118, ptr %13, align 8, !tbaa !11
  store i32 1, ptr %16, align 4, !tbaa !15
  br label %119

119:                                              ; preds = %125, %115
  %120 = load i32, ptr %16, align 4, !tbaa !15
  %121 = mul nsw i32 2, %120
  %122 = load i32, ptr %17, align 4, !tbaa !15
  %123 = icmp slt i32 %121, %122
  br i1 %123, label %124, label %131

124:                                              ; preds = %119
  br label %125

125:                                              ; preds = %124
  %126 = load ptr, ptr %13, align 8, !tbaa !11
  %127 = getelementptr inbounds nuw %struct.FFHWBaseEncodePicture, ptr %126, i32 0, i32 2
  %128 = load ptr, ptr %127, align 8, !tbaa !78
  store ptr %128, ptr %13, align 8, !tbaa !11
  %129 = load i32, ptr %16, align 4, !tbaa !15
  %130 = add nsw i32 %129, 1
  store i32 %130, ptr %16, align 4, !tbaa !15
  br label %119, !llvm.loop !180

131:                                              ; preds = %119
  %132 = load ptr, ptr %13, align 8, !tbaa !11
  %133 = getelementptr inbounds nuw %struct.FFHWBaseEncodePicture, ptr %132, i32 0, i32 10
  store i32 3, ptr %133, align 8, !tbaa !17
  %134 = load i32, ptr %11, align 4, !tbaa !15
  %135 = load ptr, ptr %13, align 8, !tbaa !11
  %136 = getelementptr inbounds nuw %struct.FFHWBaseEncodePicture, ptr %135, i32 0, i32 11
  store i32 %134, ptr %136, align 4, !tbaa !113
  %137 = load ptr, ptr %13, align 8, !tbaa !11
  %138 = getelementptr inbounds nuw %struct.FFHWBaseEncodePicture, ptr %137, i32 0, i32 16
  store i32 1, ptr %138, align 8, !tbaa !122
  %139 = load ptr, ptr %13, align 8, !tbaa !11
  %140 = load ptr, ptr %13, align 8, !tbaa !11
  call void @hw_base_encode_add_ref(ptr noundef %139, ptr noundef %140, i32 noundef 0, i32 noundef 1, i32 noundef 0)
  %141 = load ptr, ptr %13, align 8, !tbaa !11
  %142 = load ptr, ptr %8, align 8, !tbaa !11
  call void @hw_base_encode_add_ref(ptr noundef %141, ptr noundef %142, i32 noundef 1, i32 noundef 1, i32 noundef 0)
  %143 = load ptr, ptr %13, align 8, !tbaa !11
  %144 = load ptr, ptr %9, align 8, !tbaa !11
  call void @hw_base_encode_add_ref(ptr noundef %143, ptr noundef %144, i32 noundef 1, i32 noundef 1, i32 noundef 0)
  %145 = load ptr, ptr %13, align 8, !tbaa !11
  %146 = load ptr, ptr %10, align 8, !tbaa !11
  call void @hw_base_encode_add_ref(ptr noundef %145, ptr noundef %146, i32 noundef 0, i32 noundef 0, i32 noundef 1)
  %147 = load ptr, ptr %9, align 8, !tbaa !11
  %148 = getelementptr inbounds nuw %struct.FFHWBaseEncodePicture, ptr %147, i32 0, i32 20
  %149 = getelementptr inbounds [2 x [2 x ptr]], ptr %148, i64 0, i64 1
  %150 = getelementptr inbounds [2 x ptr], ptr %149, i64 0, i64 0
  %151 = load ptr, ptr %150, align 8, !tbaa !11
  store ptr %151, ptr %15, align 8, !tbaa !11
  br label %152

152:                                              ; preds = %158, %131
  %153 = load ptr, ptr %15, align 8, !tbaa !11
  %154 = icmp ne ptr %153, null
  br i1 %154, label %155, label %164

155:                                              ; preds = %152
  %156 = load ptr, ptr %13, align 8, !tbaa !11
  %157 = load ptr, ptr %15, align 8, !tbaa !11
  call void @hw_base_encode_add_ref(ptr noundef %156, ptr noundef %157, i32 noundef 0, i32 noundef 1, i32 noundef 0)
  br label %158

158:                                              ; preds = %155
  %159 = load ptr, ptr %15, align 8, !tbaa !11
  %160 = getelementptr inbounds nuw %struct.FFHWBaseEncodePicture, ptr %159, i32 0, i32 20
  %161 = getelementptr inbounds [2 x [2 x ptr]], ptr %160, i64 0, i64 1
  %162 = getelementptr inbounds [2 x ptr], ptr %161, i64 0, i64 0
  %163 = load ptr, ptr %162, align 8, !tbaa !11
  store ptr %163, ptr %15, align 8, !tbaa !11
  br label %152, !llvm.loop !181

164:                                              ; preds = %152
  %165 = load i32, ptr %16, align 4, !tbaa !15
  %166 = icmp sgt i32 %165, 1
  br i1 %166, label %167, label %174

167:                                              ; preds = %164
  %168 = load ptr, ptr %7, align 8, !tbaa !4
  %169 = load ptr, ptr %8, align 8, !tbaa !11
  %170 = load ptr, ptr %13, align 8, !tbaa !11
  %171 = load ptr, ptr %13, align 8, !tbaa !11
  %172 = load i32, ptr %11, align 4, !tbaa !15
  %173 = add nsw i32 %172, 1
  call void @hw_base_encode_set_b_pictures(ptr noundef %168, ptr noundef %169, ptr noundef %170, ptr noundef %171, i32 noundef %173, ptr noundef %14)
  br label %176

174:                                              ; preds = %164
  %175 = load ptr, ptr %13, align 8, !tbaa !11
  store ptr %175, ptr %14, align 8, !tbaa !11
  br label %176

176:                                              ; preds = %174, %167
  %177 = load ptr, ptr %7, align 8, !tbaa !4
  %178 = load ptr, ptr %13, align 8, !tbaa !11
  %179 = load ptr, ptr %9, align 8, !tbaa !11
  %180 = load ptr, ptr %14, align 8, !tbaa !11
  %181 = load i32, ptr %11, align 4, !tbaa !15
  %182 = add nsw i32 %181, 1
  %183 = load ptr, ptr %12, align 8, !tbaa !108
  call void @hw_base_encode_set_b_pictures(ptr noundef %177, ptr noundef %178, ptr noundef %179, ptr noundef %180, i32 noundef %182, ptr noundef %183)
  br label %184

184:                                              ; preds = %176, %97
  call void @llvm.lifetime.end.p0(i64 4, ptr %17) #7
  call void @llvm.lifetime.end.p0(i64 4, ptr %16) #7
  call void @llvm.lifetime.end.p0(i64 8, ptr %15) #7
  call void @llvm.lifetime.end.p0(i64 8, ptr %14) #7
  call void @llvm.lifetime.end.p0(i64 8, ptr %13) #7
  ret void
}