; Function Attrs: nounwind uwtable
define internal fastcc void @hw_base_encode_set_b_pictures(ptr noundef %0, ptr noundef %1, ptr noundef %2, ptr noundef %3, i32 noundef %4, ptr noundef nonnull writeonly captures(none) %5) unnamed_addr #1 {
  %7 = alloca ptr, align 8
  call void @llvm.lifetime.start.p0(i64 8, ptr nonnull %7) #8
  %8 = icmp eq ptr %1, null
  %9 = icmp eq ptr %2, null
  %or.cond.not93 = or i1 %8, %9
  %.not = icmp eq ptr %1, %2
  %or.cond84 = or i1 %.not, %or.cond.not93
  br i1 %or.cond84, label %13, label %10

10:                                               ; preds = %6
  %11 = getelementptr inbounds nuw i8, ptr %1, i64 16
  %12 = load ptr, ptr %11, align 8, !tbaa !71
  %.not78 = icmp eq ptr %12, %2
  br i1 %.not78, label %13, label %14

13:                                               ; preds = %10, %6
  tail call void (ptr, i32, ptr, ...) @av_log(ptr noundef null, i32 noundef 0, ptr noundef nonnull @.str, ptr noundef nonnull @.str.31, ptr noundef nonnull @.str.2, i32 noundef 121) #8
  tail call void @abort() #9
  unreachable

14:                                               ; preds = %10
  %15 = getelementptr inbounds nuw i8, ptr %0, i64 1104
  %16 = load i32, ptr %15, align 8, !tbaa !140
  %17 = icmp eq i32 %4, %16
  br i1 %17, label %22, label %18

18:                                               ; preds = %14
  %19 = getelementptr inbounds nuw i8, ptr %12, i64 16
  %20 = load ptr, ptr %19, align 8, !tbaa !71
  %21 = icmp eq ptr %20, %2
  br i1 %21, label %.lr.ph121, label %.lr.ph

22:                                               ; preds = %14
  %.not81117 = icmp eq ptr %12, null
  br i1 %.not81117, label %._crit_edge122, label %.lr.ph121

.lr.ph121:                                        ; preds = %18, %22
  %23 = getelementptr inbounds nuw i8, ptr %3, i64 296
  %24 = getelementptr inbounds nuw i8, ptr %3, i64 300
  %.071.in110 = getelementptr inbounds nuw i8, ptr %2, i64 272
  br label %25

25:                                               ; preds = %.lr.ph121, %._crit_edge115
  %.072119 = phi ptr [ %12, %.lr.ph121 ], [ %.072, %._crit_edge115 ]
  %26 = getelementptr inbounds nuw i8, ptr %.072119, i64 80
  store i32 3, ptr %26, align 8, !tbaa !4
  %27 = getelementptr inbounds nuw i8, ptr %.072119, i64 84
  store i32 %4, ptr %27, align 4, !tbaa !117
  tail call fastcc void @hw_base_encode_add_ref(ptr noundef nonnull %.072119, ptr noundef nonnull %1, i32 noundef 1, i32 noundef 1, i32 noundef 0)
  tail call fastcc void @hw_base_encode_add_ref(ptr noundef nonnull %.072119, ptr noundef nonnull %2, i32 noundef 1, i32 noundef 1, i32 noundef 0)
  %28 = getelementptr inbounds nuw i8, ptr %.072119, i64 288
  %29 = load ptr, ptr %28, align 8, !tbaa !130
  %.not36.i = icmp eq ptr %29, null
  br i1 %.not36.i, label %hw_base_encode_add_ref.exit, label %30

30:                                               ; preds = %25
  tail call void (ptr, i32, ptr, ...) @av_log(ptr noundef null, i32 noundef 0, ptr noundef nonnull @.str, ptr noundef nonnull @.str.30, ptr noundef nonnull @.str.2, i32 noundef 68) #8
  tail call void @abort() #9
  unreachable

hw_base_encode_add_ref.exit:                      ; preds = %25
  store ptr %3, ptr %28, align 8, !tbaa !130
  %31 = load i32, ptr %23, align 8, !tbaa !111
  %32 = add nsw i32 %31, 1
  store i32 %32, ptr %23, align 8, !tbaa !111
  %33 = load i32, ptr %24, align 4, !tbaa !111
  %34 = add nsw i32 %33, 1
  store i32 %34, ptr %24, align 4, !tbaa !111
  %.071111 = load ptr, ptr %.071.in110, align 8, !tbaa !60
  %.not82112 = icmp eq ptr %.071111, null
  br i1 %.not82112, label %._crit_edge115, label %.lr.ph114

.lr.ph114:                                        ; preds = %hw_base_encode_add_ref.exit
  %35 = getelementptr inbounds nuw i8, ptr %.072119, i64 116
  %36 = getelementptr inbounds nuw i8, ptr %.072119, i64 120
  br label %37

37:                                               ; preds = %.lr.ph114, %hw_base_encode_add_ref.exit86
  %.071113 = phi ptr [ %.071111, %.lr.ph114 ], [ %.071, %hw_base_encode_add_ref.exit86 ]
  %38 = load i32, ptr %35, align 4, !tbaa !126
  %39 = icmp slt i32 %38, 16
  br i1 %39, label %hw_base_encode_add_ref.exit86, label %40

40:                                               ; preds = %37
  tail call void (ptr, i32, ptr, ...) @av_log(ptr noundef null, i32 noundef 0, ptr noundef nonnull @.str, ptr noundef nonnull @.str.29, ptr noundef nonnull @.str.2, i32 noundef 62) #8
  tail call void @abort() #9
  unreachable

hw_base_encode_add_ref.exit86:                    ; preds = %37
  %41 = add nsw i32 %38, 1
  store i32 %41, ptr %35, align 4, !tbaa !126
  %42 = sext i32 %38 to i64
  %43 = getelementptr inbounds [16 x ptr], ptr %36, i64 0, i64 %42
  store ptr %.071113, ptr %43, align 8, !tbaa !60
  %44 = getelementptr inbounds nuw i8, ptr %.071113, i64 296
  %45 = load i32, ptr %44, align 8, !tbaa !111
  %46 = add nsw i32 %45, 1
  store i32 %46, ptr %44, align 8, !tbaa !111
  %47 = getelementptr inbounds nuw i8, ptr %.071113, i64 300
  %48 = load i32, ptr %47, align 4, !tbaa !111
  %49 = add nsw i32 %48, 1
  store i32 %49, ptr %47, align 4, !tbaa !111
  %.071.in = getelementptr inbounds nuw i8, ptr %.071113, i64 272
  %.071 = load ptr, ptr %.071.in, align 8, !tbaa !60
  %.not82 = icmp eq ptr %.071, null
  br i1 %.not82, label %._crit_edge115, label %37, !llvm.loop !166

._crit_edge115:                                   ; preds = %hw_base_encode_add_ref.exit86, %hw_base_encode_add_ref.exit
  %50 = getelementptr inbounds nuw i8, ptr %.072119, i64 16
  %.072 = load ptr, ptr %50, align 8, !tbaa !71
  %.not81 = icmp eq ptr %.072, null
  %51 = icmp eq ptr %.072, %2
  %or.cond85 = or i1 %.not81, %51
  br i1 %or.cond85, label %._crit_edge122, label %25, !llvm.loop !167

._crit_edge122:                                   ; preds = %._crit_edge115, %22
  store ptr %3, ptr %5, align 8, !tbaa !60
  br label %103

.preheader:                                       ; preds = %.lr.ph
  %52 = icmp samesign ugt i32 %.097, 1
  br i1 %52, label %.lr.ph101.preheader, label %._crit_edge

.lr.ph101.preheader:                              ; preds = %.preheader
  %53 = add nsw i32 %.097, -2
  %54 = lshr i32 %53, 1
  %55 = add nuw nsw i32 %54, 1
  br label %.lr.ph101

.lr.ph:                                           ; preds = %18, %.lr.ph
  %.097 = phi i32 [ %56, %.lr.ph ], [ 0, %18 ]
  %.17396 = phi ptr [ %58, %.lr.ph ], [ %12, %18 ]
  %56 = add nuw nsw i32 %.097, 1
  %57 = getelementptr inbounds nuw i8, ptr %.17396, i64 16
  %58 = load ptr, ptr %57, align 8, !tbaa !71
  %.not79 = icmp eq ptr %58, %2
  br i1 %.not79, label %.preheader, label %.lr.ph, !llvm.loop !168

.lr.ph101:                                        ; preds = %.lr.ph101.preheader, %.lr.ph101
  %.2100 = phi ptr [ %.2, %.lr.ph101 ], [ %12, %.lr.ph101.preheader ]
  %.07099 = phi i32 [ %60, %.lr.ph101 ], [ 1, %.lr.ph101.preheader ]
  %59 = getelementptr inbounds nuw i8, ptr %.2100, i64 16
  %60 = add nuw nsw i32 %.07099, 1
  %.2 = load ptr, ptr %59, align 8, !tbaa !71
  %exitcond.not = icmp eq i32 %.07099, %55
  br i1 %exitcond.not, label %._crit_edge, label %.lr.ph101, !llvm.loop !169

._crit_edge:                                      ; preds = %.lr.ph101, %.preheader
  %.2.lcssa = phi ptr [ %12, %.preheader ], [ %.2, %.lr.ph101 ]
  %61 = getelementptr inbounds nuw i8, ptr %.2.lcssa, i64 80
  store i32 3, ptr %61, align 8, !tbaa !4
  %62 = getelementptr inbounds nuw i8, ptr %.2.lcssa, i64 84
  store i32 %4, ptr %62, align 4, !tbaa !117
  %63 = getelementptr inbounds nuw i8, ptr %.2.lcssa, i64 112
  store i32 1, ptr %63, align 8, !tbaa !125
  %64 = getelementptr inbounds nuw i8, ptr %.2.lcssa, i64 116
  %65 = load i32, ptr %64, align 4, !tbaa !126
  %66 = icmp slt i32 %65, 16
  br i1 %66, label %hw_base_encode_add_ref.exit87, label %67

67:                                               ; preds = %._crit_edge
  tail call void (ptr, i32, ptr, ...) @av_log(ptr noundef null, i32 noundef 0, ptr noundef nonnull @.str, ptr noundef nonnull @.str.29, ptr noundef nonnull @.str.2, i32 noundef 62) #8
  tail call void @abort() #9
  unreachable

hw_base_encode_add_ref.exit87:                    ; preds = %._crit_edge
  %68 = getelementptr inbounds nuw i8, ptr %.2.lcssa, i64 120
  %69 = add nsw i32 %65, 1
  store i32 %69, ptr %64, align 4, !tbaa !126
  %70 = sext i32 %65 to i64
  %71 = getelementptr inbounds [16 x ptr], ptr %68, i64 0, i64 %70
  store ptr %.2.lcssa, ptr %71, align 8, !tbaa !60
  %72 = getelementptr inbounds nuw i8, ptr %.2.lcssa, i64 296
  %73 = load i32, ptr %72, align 8, !tbaa !111
  %74 = add nsw i32 %73, 1
  store i32 %74, ptr %72, align 8, !tbaa !111
  %75 = getelementptr inbounds nuw i8, ptr %.2.lcssa, i64 300
  %76 = load i32, ptr %75, align 4, !tbaa !111
  %77 = add nsw i32 %76, 1
  store i32 %77, ptr %75, align 4, !tbaa !111
  tail call fastcc void @hw_base_encode_add_ref(ptr noundef nonnull %.2.lcssa, ptr noundef nonnull %1, i32 noundef 1, i32 noundef 1, i32 noundef 0)
  tail call fastcc void @hw_base_encode_add_ref(ptr noundef nonnull %.2.lcssa, ptr noundef nonnull %2, i32 noundef 1, i32 noundef 1, i32 noundef 0)
  %78 = getelementptr inbounds nuw i8, ptr %.2.lcssa, i64 288
  %79 = load ptr, ptr %78, align 8, !tbaa !130
  %.not36.i88 = icmp eq ptr %79, null
  br i1 %.not36.i88, label %hw_base_encode_add_ref.exit89, label %80

80:                                               ; preds = %hw_base_encode_add_ref.exit87
  tail call void (ptr, i32, ptr, ...) @av_log(ptr noundef null, i32 noundef 0, ptr noundef nonnull @.str, ptr noundef nonnull @.str.30, ptr noundef nonnull @.str.2, i32 noundef 68) #8
  tail call void @abort() #9
  unreachable

hw_base_encode_add_ref.exit89:                    ; preds = %hw_base_encode_add_ref.exit87
  store ptr %3, ptr %78, align 8, !tbaa !130
  %81 = getelementptr inbounds nuw i8, ptr %3, i64 296
  %82 = load i32, ptr %81, align 8, !tbaa !111
  %83 = add nsw i32 %82, 1
  store i32 %83, ptr %81, align 8, !tbaa !111
  %84 = getelementptr inbounds nuw i8, ptr %3, i64 300
  %85 = load i32, ptr %84, align 4, !tbaa !111
  %86 = add nsw i32 %85, 1
  store i32 %86, ptr %84, align 4, !tbaa !111
  %.1.in104 = getelementptr inbounds nuw i8, ptr %2, i64 272
  %.1105 = load ptr, ptr %.1.in104, align 8, !tbaa !60
  %.not80106 = icmp eq ptr %.1105, null
  br i1 %.not80106, label %._crit_edge109, label %.lr.ph108

.lr.ph108:                                        ; preds = %hw_base_encode_add_ref.exit89, %hw_base_encode_add_ref.exit90
  %.1107 = phi ptr [ %.1, %hw_base_encode_add_ref.exit90 ], [ %.1105, %hw_base_encode_add_ref.exit89 ]
  %87 = load i32, ptr %64, align 4, !tbaa !126
  %88 = icmp slt i32 %87, 16
  br i1 %88, label %hw_base_encode_add_ref.exit90, label %89

89:                                               ; preds = %.lr.ph108
  tail call void (ptr, i32, ptr, ...) @av_log(ptr noundef null, i32 noundef 0, ptr noundef nonnull @.str, ptr noundef nonnull @.str.29, ptr noundef nonnull @.str.2, i32 noundef 62) #8
  tail call void @abort() #9
  unreachable

hw_base_encode_add_ref.exit90:                    ; preds = %.lr.ph108
  %90 = add nsw i32 %87, 1
  store i32 %90, ptr %64, align 4, !tbaa !126
  %91 = sext i32 %87 to i64
  %92 = getelementptr inbounds [16 x ptr], ptr %68, i64 0, i64 %91
  store ptr %.1107, ptr %92, align 8, !tbaa !60
  %93 = getelementptr inbounds nuw i8, ptr %.1107, i64 296
  %94 = load i32, ptr %93, align 8, !tbaa !111
  %95 = add nsw i32 %94, 1
  store i32 %95, ptr %93, align 8, !tbaa !111
  %96 = getelementptr inbounds nuw i8, ptr %.1107, i64 300
  %97 = load i32, ptr %96, align 4, !tbaa !111
  %98 = add nsw i32 %97, 1
  store i32 %98, ptr %96, align 4, !tbaa !111
  %.1.in = getelementptr inbounds nuw i8, ptr %.1107, i64 272
  %.1 = load ptr, ptr %.1.in, align 8, !tbaa !60
  %.not80 = icmp eq ptr %.1, null
  br i1 %.not80, label %._crit_edge109, label %.lr.ph108, !llvm.loop !170

._crit_edge109:                                   ; preds = %hw_base_encode_add_ref.exit90, %hw_base_encode_add_ref.exit89
  %99 = add nsw i32 %4, 1
  br i1 %52, label %100, label %101

100:                                              ; preds = %._crit_edge109
  call fastcc void @hw_base_encode_set_b_pictures(ptr noundef %0, ptr noundef nonnull %1, ptr noundef nonnull %.2.lcssa, ptr noundef nonnull %.2.lcssa, i32 noundef %99, ptr noundef %7)
  %.pre = load ptr, ptr %7, align 8, !tbaa !60
  br label %101

101:                                              ; preds = %._crit_edge109, %100
  %102 = phi ptr [ %.pre, %100 ], [ %.2.lcssa, %._crit_edge109 ]
  tail call fastcc void @hw_base_encode_set_b_pictures(ptr noundef %0, ptr noundef nonnull %.2.lcssa, ptr noundef nonnull %2, ptr noundef %102, i32 noundef %99, ptr noundef %5)
  br label %103

103:                                              ; preds = %101, %._crit_edge122
  call void @llvm.lifetime.end.p0(i64 8, ptr nonnull %7) #8
  ret void
}